(lp0
I589
aI632
aI657
aI657
aI657
aI620
aI635
aI623
aI622
aI622
aI661
aI661
aI641
aI641
aI641
aI642
aI642
aI642
aI642
aI642
aI642
aI628
aI602
aI658
aI659
aI659
aI632
aI632
aI627
aI627
aI651
aI644
aI631
aI635
aI639
aI639
aI620
aI666
aI666
aI666
aI87
aI625
aI630
aI599
aI660
aI660
aI660
aI641
aI660
aI660
aI636
aI638
aI647
aI617
aI627
aI630
aI607
aI648
aI656
aI625
aI620
aI640
aI623
aI627
aI655
aI648
aI648
aI653
aI645
aI636
aI615
aI648
aI648
aI619
aI645
aI667
aI667
aI647
aI673
aI647
aI603
aI594
aI623
aI621
aI639
aI639
aI87
aI87
aI87
aI637
aI637
aI637
aI654
aI654
aI654
aI622
aI640
aI624
aI624
aI666
aI642
aI631
aI631
aI633
aI633
aI647
aI647
aI647
aI647
aI605
aI629
aI630
aI630
aI643
aI655
aI642
aI624
aI134
aI612
aI635
aI658
aI657
aI657
aI657
aI648
aI625
aI599
aI627
aI660
aI660
aI615
aI661
aI661
aI639
aI653
aI639
aI613
aI629
aI627
aI631
aI655
aI660
aI660
aI630
aI628
aI630
aI660
aI660
aI623
aI615
aI626
aI620
aI658
aI658
aI606
aI635
aI635
aI635
aI653
aI654
aI629
aI637
aI644
aI644
aI651
aI645
aI619
aI639
aI637
aI625
aI642
aI669
aI669
aI615
aI647
aI624
aI651
aI650
aI632
aI627
aI627
aI633
aI642
aI651
aI651
aI632
aI629
aI634
aI648
aI661
aI630
aI636
aI640
aI624
aI644
aI653
aI621
aI615
aI633
aI623
aI646
aI661
aI661
aI626
aI628
aI625
aI647
aI654
aI627
aI633
aI626
aI611
aI645
aI660
aI625
aI630
aI629
aI628
aI628
aI650
aI633
aI619
aI647
aI624
aI642
aI658
aI634
aI626
aI636
aI606
aI644
aI644
aI644
aI644
aI644
aI644
aI644
aI606
aI648
aI659
aI659
aI608
aI643
aI640
aI619
aI652
aI642
aI624
aI641
aI632
aI632
aI636
aI636
aI636
aI636
aI621
aI637
aI630
aI630
aI654
aI662
aI640
aI612
aI640
aI623
aI654
aI654
aI654
aI619
aI641
aI641
aI641
aI663
aI662
aI632
aI611
aI634
aI610
aI610
aI646
aI646
aI646
aI646
aI640
aI643
aI631
aI647
aI647
aI641
aI626
aI632
aI619
aI606
aI606
aI606
aI606
aI606
aI606
aI606
aI615
aI629
aI662
aI657
aI609
aI621
aI630
aI630
aI665
aI649
aI624
aI623
aI637
aI607
aI627
aI661
aI653
aI86
aI654
aI654
aI624
aI637
aI660
aI660
aI602
aI636
aI673
aI673
aI673
aI613
aI644
aI639
aI616
aI641
aI633
aI633
aI641
aI644
aI625
aI635
aI629
aI615
aI649
aI659
aI624
aI639
aI641
aI620
aI647
aI652
aI615
aI635
aI622
aI622
aI666
aI648
aI625
aI629
aI627
aI627
aI647
aI647
aI618
aI624
aI626
aI631
aI665
aI651
aI638
aI620
aI640
aI624
aI626
aI626
aI668
aI668
aI609
aI624
aI620
aI620
aI620
aI657
aI638
aI625
aI639
aI609
aI619
aI619
aI668
aI668
aI668
aI637
aI614
aI614
aI626
aI646
aI608
a.