(lp0
I614
aI632
aI678
aI678
aI622
aI635
aI625
aI637
aI629
aI609
aI624
aI588
aI618
aI634
aI615
aI615
aI609
aI623
aI602
aI607
aI624
aI643
aI630
aI630
aI634
aI640
aI626
aI600
aI630
aI635
aI635
aI656
aI618
aI618
aI625
aI625
aI594
aI599
aI630
aI616
aI612
aI630
aI630
aI634
aI625
aI635
aI631
aI617
aI629
aI627
aI634
aI619
aI629
aI610
aI634
aI600
aI628
aI626
aI640
aI606
aI623
aI623
aI625
aI617
aI626
aI626
aI626
aI612
aI627
aI612
aI650
aI613
aI613
aI604
aI622
aI632
aI642
aI642
aI614
aI615
aI627
aI627
aI625
aI605
aI615
aI611
aI624
aI624
aI615
aI615
aI635
aI596
aI616
aI598
aI648
aI648
aI635
aI615
aI615
aI625
aI617
aI615
aI619
aI661
aI660
aI619
aI627
aI627
aI612
aI669
aI669
aI624
aI624
aI617
aI668
aI668
aI609
aI609
aI670
aI670
aI618
aI619
aI628
aI636
aI598
aI613
aI624
aI596
aI604
aI627
aI626
aI626
aI624
aI624
aI624
aI603
aI614
aI612
aI629
aI613
aI620
aI620
aI668
aI668
aI647
aI648
aI648
aI648
aI648
aI607
aI605
aI596
aI616
aI616
aI621
aI620
aI618
aI624
aI609
aI609
aI640
aI640
aI640
aI615
aI615
aI614
aI637
aI608
aI618
aI605
aI613
aI624
aI626
aI627
aI621
aI623
aI626
aI616
aI612
aI613
aI613
aI594
aI619
aI609
aI626
aI598
aI626
aI640
aI699
aI667
aI633
aI633
aI633
aI615
aI590
aI590
aI618
aI618
aI614
aI614
aI618
aI619
aI623
aI603
aI603
aI599
aI600
aI600
aI628
aI615
aI656
aI652
aI652
aI652
aI636
aI636
aI606
aI624
aI624
aI624
aI624
aI614
aI614
aI623
aI641
aI623
aI623
aI594
aI594
aI600
aI634
aI634
aI634
aI629
aI640
aI615
aI634
aI636
aI669
aI669
aI603
aI599
aI623
aI605
aI607
aI599
aI614
aI614
aI614
aI614
aI614
aI617
aI622
aI637
aI632
aI672
aI672
aI598
aI661
aI618
aI616
aI597
aI616
aI648
aI648
aI600
aI600
aI621
aI621
aI621
aI621
aI642
aI188
aI188
aI630
aI619
aI619
aI619
aI686
aI686
aI624
aI619
aI629
aI619
aI623
aI606
aI629
aI629
aI615
aI615
aI615
aI615
aI646
aI621
aI621
aI681
aI671
aI671
aI611
aI614
aI594
aI604
aI604
aI604
aI627
aI635
aI635
aI647
aI664
aI625
aI632
aI609
aI628
aI616
aI605
aI607
aI635
aI635
aI635
aI635
aI616
aI616
aI631
aI645
aI645
aI623
aI623
aI623
aI646
aI615
aI619
aI599
aI620
aI621
aI642
aI642
aI615
aI604
aI604
aI610
aI610
aI610
aI643
aI643
aI641
aI613
aI613
aI613
aI656
aI656
aI614
aI620
aI614
aI600
aI612
aI598
aI624
aI624
aI609
aI614
aI614
aI614
aI640
aI640
aI640
aI640
aI640
aI640
aI678
aI678
aI610
aI595
aI595
aI595
aI617
aI631
aI631
aI630
aI630
aI649
aI649
aI620
aI656
aI656
aI613
aI608
aI608
aI610
aI609
aI609
aI609
aI626
aI641
aI652
aI652
aI617
aI648
aI622
aI639
aI639
aI653
aI640
aI614
aI614
aI600
aI624
aI613
aI596
aI621
aI621
aI656
aI656
aI656
aI656
aI656
aI656
aI616
aI616
aI616
aI616
aI616
aI625
aI614
aI632
aI632
aI651
aI637
aI616
aI637
aI616
aI639
aI603
aI621
aI621
aI621
aI621
aI645
aI604
aI632
aI596
aI625
aI604
aI618
aI613
aI619
aI610
aI613
aI627
aI616
aI622
aI623
aI643
aI643
aI623
aI632
aI620
aI635
aI636
aI630
aI651
aI651
aI632
aI645
aI619
aI630
aI626
aI672
aI666
aI666
aI666
aI645
aI630
aI635
aI600
aI623
aI599
aI599
aI606
aI617
aI656
aI656
aI666
aI632
aI604
aI615
aI635
aI663
aI663
aI615
aI618
aI610
aI614
aI614
aI614
aI632
aI632
aI629
aI637
aI637
aI615
aI626
aI626
aI626
aI626
aI612
aI616
a.