(lp0
I455
aI441
aI490
aI490
aI455
aI96
aI380
aI472
aI497
aI91
aI355
aI473
aI486
aI92
aI436
aI97
aI476
aI504
aI480
aI386
aI98
aI521
aI521
aI527
aI506
aI417
aI393
aI383
aI82
aI522
aI480
aI404
aI431
aI513
aI411
aI512
aI105
aI528
aI490
aI386
aI514
aI528
aI93
aI508
aI481
aI521
aI498
aI424
aI407
aI444
aI527
aI421
aI102
aI432
aI442
aI527
aI522
aI422
aI405
aI405
aI519
aI89
aI528
aI505
aI513
aI513
aI511
aI480
aI427
aI528
aI454
aI527
aI528
aI527
aI90
aI484
aI426
aI387
aI377
aI490
aI96
aI489
aI424
aI469
aI492
aI434
aI457
aI469
aI395
aI395
aI490
aI422
aI420
aI436
aI436
aI500
aI97
aI441
aI378
aI106
aI450
aI427
aI452
aI527
aI427
aI387
aI373
aI502
aI412
aI95
aI97
aI389
aI406
aI466
aI99
aI490
aI405
aI489
aI439
aI414
aI502
aI372
aI417
aI106
aI512
aI524
aI453
aI465
aI495
aI470
aI396
aI524
aI497
aI474
aI524
aI406
aI69
aI92
aI108
aI388
aI468
aI488
aI395
aI498
aI463
aI527
aI496
aI475
aI75
aI427
aI528
aI92
aI520
aI496
aI492
aI114
aI479
aI424
aI494
aI434
aI368
aI368
aI521
aI418
aI106
aI491
aI473
aI382
aI456
aI449
aI402
aI481
aI439
aI449
aI100
aI455
aI498
aI148
aI526
aI145
aI528
aI436
aI438
aI521
aI361
aI411
aI456
aI380
aI385
aI475
aI99
aI467
aI417
aI512
aI433
aI497
aI426
aI479
aI405
aI487
aI448
aI475
aI489
aI525
aI447
aI472
aI472
aI367
aI498
aI374
aI374
aI412
aI528
aI501
aI524
aI406
aI424
aI378
aI492
aI496
aI479
aI528
aI488
aI496
aI474
aI475
aI363
aI406
aI406
aI453
aI506
aI425
aI367
aI474
aI368
aI380
aI505
aI526
aI474
aI411
aI518
aI433
aI379
aI476
aI491
aI474
aI506
aI524
aI513
aI473
aI513
aI442
aI476
aI406
aI415
aI415
aI386
aI484
aI504
aI504
aI447
aI515
aI405
aI523
aI476
aI444
aI359
aI453
aI349
aI377
aI506
aI506
aI527
aI479
aI345
aI521
aI527
aI385
aI375
aI474
aI435
aI404
aI440
aI481
aI512
aI504
aI444
aI524
aI368
aI524
aI426
aI478
aI479
aI388
aI527
aI389
aI427
aI519
aI425
aI378
aI512
aI512
aI441
aI378
aI513
aI473
aI370
aI469
aI404
aI446
aI522
aI147
aI485
aI427
aI392
aI420
aI361
aI468
aI434
aI434
aI411
aI411
aI441
aI394
aI485
aI489
aI409
aI511
aI452
aI362
aI395
aI522
aI389
aI528
aI476
aI126
aI498
aI455
aI434
aI521
aI503
aI522
aI474
aI512
aI528
aI474
aI107
aI521
aI512
aI423
aI463
aI522
aI521
aI499
aI501
aI506
aI489
aI419
aI448
aI496
aI466
aI427
aI420
aI420
aI490
aI517
aI394
aI434
aI426
aI436
aI468
aI404
aI505
aI402
aI389
aI518
aI521
aI489
aI413
aI413
aI360
aI521
aI98
aI438
aI442
aI385
aI385
aI512
aI471
aI390
aI393
aI528
aI489
aI429
aI115
aI495
aI488
aI377
aI501
aI451
aI528
aI517
aI516
aI413
aI517
aI491
aI524
aI437
aI442
aI492
aI506
aI379
aI429
aI379
aI467
aI402
aI513
aI440
aI376
aI472
aI521
aI382
aI469
aI483
aI512
aI490
aI477
aI458
aI447
aI442
aI379
aI412
aI463
aI472
aI103
aI377
aI480
aI424
aI521
aI366
aI500
aI405
aI92
aI92
aI374
aI518
aI513
aI521
aI384
aI454
aI409
aI522
aI74
aI74
aI412
aI372
aI405
aI480
aI489
aI484
aI397
aI397
aI379
aI472
aI406
aI363
aI473
aI408
aI400
aI399
aI480
aI376
aI388
aI343
aI506
aI484
aI482
aI396
aI473
aI369
aI360
aI395
aI460
aI501
aI442
aI408
aI420
aI474
aI436
aI510
aI510
aI424
aI481
aI520
aI507
aI473
aI527
aI477
aI417
aI99
aI475
aI386
aI505
aI528
aI433
aI399
aI412
aI456
aI504
aI393
aI527
aI438
aI395
aI528
aI458
aI356
aI527
aI444
aI511
aI432
aI441
aI527
aI518
aI476
aI474
aI426
aI406
aI359
aI436
aI394
aI489
aI528
aI435
aI524
aI427
aI474
aI83
aI407
aI353
aI504
aI522
aI451
aI503
aI360
aI441
aI462
aI365
aI436
aI474
aI411
aI432
aI372
aI369
aI420
aI488
aI489
aI495
aI383
aI467
aI467
aI359
aI359
aI474
aI409
aI432
aI513
aI476
aI404
aI474
aI461
aI448
aI523
aI472
aI505
aI450
aI87
aI89
aI367
aI441
aI391
aI410
aI527
aI526
aI429
aI506
aI506
aI372
aI385
aI409
aI491
aI492
aI522
aI513
aI522
aI472
aI434
aI410
aI368
aI378
aI369
aI528
aI415
aI489
aI409
aI389
aI453
aI88
aI491
aI474
aI505
aI356
aI137
aI101
aI98
aI450
aI450
aI427
aI427
aI494
aI523
aI521
aI477
aI516
aI367
aI476
aI475
aI442
aI378
aI496
aI470
aI488
aI488
aI527
aI383
aI506
aI472
aI472
aI360
aI474
aI480
aI383
aI387
aI466
aI390
a.