(lp0
I51
aI43
aI43
aI39
aI47
aI52
aI32
aI32
aI43
aI51
aI51
aI37
aI36
aI31
aI67
aI67
aI67
aI67
aI40
aI31
aI40
aI32
aI52
aI80
aI82
aI82
aI82
aI31
aI26
aI42
aI56
aI80
aI81
aI81
aI33
aI39
aI39
aI42
aI42
aI26
aI21
aI33
aI19
aI63
aI62
aI31
aI18
aI3
aI52
aI52
aI52
aI18
aI18
aI31
aI55
aI50
aI22
aI22
aI22
aI47
aI42
aI54
aI24
aI39
aI27
aI64
aI64
aI64
aI34
aI40
aI47
aI56
aI56
aI68
aI68
aI68
aI53
aI53
aI35
aI35
aI29
aI29
aI12
aI41
aI44
aI40
aI40
aI19
aI19
aI44
aI57
aI43
aI40
aI61
aI57
aI57
aI54
aI34
aI39
aI39
aI49
aI49
aI54
aI97
aI97
aI97
aI47
aI44
aI12
aI12
aI37
aI47
aI53
aI53
aI53
aI43
aI29
aI29
aI40
aI6
aI47
aI47
aI88
aI88
aI88
aI33
aI45
aI47
aI32
aI32
aI25
aI46
aI25
aI68
aI89
aI46
aI46
aI34
aI48
aI62
aI62
aI50
aI50
aI50
aI57
aI52
aI36
aI45
aI47
aI47
aI66
aI20
aI20
aI20
aI32
aI32
aI41
aI13
aI55
aI66
aI76
aI73
aI41
aI34
aI34
aI24
aI35
aI55
aI55
aI91
aI41
aI27
aI29
aI31
aI31
aI48
aI37
aI79
aI79
aI3
aI45
aI46
aI33
aI43
aI43
aI23
aI40
aI90
aI90
aI90
aI23
aI33
aI25
aI25
aI25
aI31
aI33
aI88
aI81
aI81
aI46
aI40
aI40
aI47
aI52
aI52
aI52
aI39
aI44
aI55
aI8
aI36
aI47
aI36
aI36
aI45
aI37
aI53
aI33
aI36
aI60
aI71
aI54
aI55
aI55
aI35
aI43
aI46
aI67
aI67
aI67
aI67
aI67
aI67
aI62
aI62
aI81
aI81
aI27
aI32
aI42
aI42
aI31
aI22
aI33
aI23
aI30
aI55
aI55
aI33
aI42
aI39
aI48
aI36
aI32
aI32
aI48
aI41
aI17
aI31
aI42
aI36
aI48
aI33
aI37
aI48
aI57
aI40
aI53
aI95
aI68
aI51
aI26
aI27
aI27
aI33
aI43
aI43
aI94
aI94
aI94
aI26
aI34
aI34
aI87
aI87
aI18
aI21
aI30
aI30
aI30
aI32
aI59
aI74
aI74
aI63
aI39
aI27
aI33
aI33
aI58
aI79
aI79
aI29
aI39
aI29
aI29
aI35
aI23
aI42
aI79
aI64
aI64
aI25
aI38
aI38
aI38
aI39
aI60
aI82
aI93
aI93
aI40
aI39
aI53
aI60
aI52
aI24
aI43
aI34
aI26
aI26
aI39
aI39
aI40
aI50
aI60
aI92
aI92
aI30
aI30
aI37
aI60
aI48
aI36
aI30
aI77
aI77
aI77
aI48
aI16
aI36
aI36
aI27
aI49
aI84
aI84
aI84
aI34
aI52
aI56
aI57
aI26
aI17
aI47
aI56
aI58
aI58
aI42
aI40
aI53
aI54
aI72
a.