(lp0
I37
aI38
aI31
aI25
aI40
aI40
aI41
aI32
aI36
aI25
aI33
aI33
aI59
aI59
aI15
aI34
aI36
aI36
aI32
aI55
aI32
aI16
aI19
aI20
aI40
aI40
aI30
aI30
aI30
aI38
aI38
aI29
aI29
aI34
aI59
aI59
aI11
aI26
aI26
aI43
aI43
aI43
aI43
aI1
aI1
aI47
aI58
aI59
aI40
aI40
aI49
aI49
aI49
aI43
aI43
aI32
aI41
aI23
aI38
aI75
aI75
aI75
aI36
aI35
aI42
aI42
aI57
aI57
aI42
aI32
aI32
aI36
aI36
aI27
aI33
aI25
aI25
aI25
aI17
aI19
aI48
aI49
aI49
aI46
aI39
aI39
aI26
aI64
aI42
aI25
aI31
aI31
aI31
aI31
aI31
aI23
aI26
aI26
aI34
aI23
aI48
aI48
aI48
aI40
aI40
aI18
aI18
aI33
aI31
aI38
aI59
aI50
aI43
aI40
aI38
aI45
aI25
aI34
aI34
aI50
aI50
aI50
aI49
aI29
aI29
aI47
aI47
aI47
aI31
aI35
aI48
aI48
aI41
aI36
aI36
aI20
aI63
aI63
aI63
aI56
aI21
aI32
aI32
aI32
aI32
aI34
aI57
aI87
aI87
aI5
aI30
aI30
aI30
aI28
aI65
aI65
aI65
aI33
aI27
aI43
aI43
aI42
aI33
aI33
aI37
aI27
aI27
aI27
aI33
aI31
aI31
aI40
aI40
aI39
aI19
aI63
aI46
aI28
aI4
aI24
aI53
aI53
aI29
aI29
aI29
aI30
aI43
aI43
aI49
aI47
aI47
aI47
aI34
aI66
aI66
aI41
aI16
aI37
aI41
aI26
aI27
aI35
aI35
aI48
aI25
aI25
aI25
aI32
aI15
aI15
aI41
aI58
aI43
aI34
aI30
aI30
aI56
aI56
aI56
aI42
aI42
aI33
aI27
aI27
aI40
aI35
aI20
aI37
aI34
aI34
aI21
aI34
aI81
aI39
aI36
aI39
aI30
aI30
aI30
aI30
aI50
aI43
aI17
aI40
aI40
aI32
aI26
aI36
aI22
aI16
aI36
aI43
aI43
aI43
aI22
aI22
aI40
aI40
aI54
aI32
aI40
aI40
aI18
aI19
aI26
aI44
aI44
aI32
aI32
aI43
aI43
aI11
aI34
aI42
aI42
aI37
aI32
aI47
aI76
aI76
aI76
aI25
aI25
aI54
aI50
aI50
aI50
aI44
aI47
aI35
aI27
aI27
aI11
aI11
aI34
aI32
aI60
aI1
aI33
aI32
aI34
aI36
aI35
aI35
aI51
aI51
aI44
aI23
aI23
aI52
aI48
aI48
aI17
aI6
aI33
aI76
aI76
aI76
aI76
aI76
aI47
aI47
aI42
aI28
aI28
aI44
aI35
aI35
aI35
aI31
aI52
aI77
aI50
aI50
aI24
aI24
aI10
aI79
aI79
aI18
aI31
aI47
aI47
aI59
aI59
aI59
aI30
aI30
aI43
aI43
aI16
aI16
aI37
aI48
aI48
aI27
aI62
aI62
aI10
aI31
aI31
aI27
aI27
aI32
aI21
aI34
aI38
aI21
aI45
aI48
aI48
aI48
aI40
aI22
aI22
aI33
aI41
aI35
aI35
aI42
aI36
aI33
aI33
aI33
aI44
aI32
aI32
aI32
aI32
aI32
aI41
aI43
aI43
aI32
aI40
aI40
aI74
aI74
aI38
aI57
aI57
aI57
aI28
aI42
aI11
aI49
aI49
aI41
aI39
aI39
aI39
aI39
aI36
aI11
aI42
aI42
aI42
aI9
aI36
aI17
aI17
aI17
aI33
aI33
aI33
aI33
aI33
aI19
aI19
aI19
aI19
aI25
aI25
aI25
aI63
aI63
aI20
aI30
aI49
aI49
aI38
aI53
aI53
aI32
aI28
aI65
aI65
aI33
aI33
aI37
aI31
aI30
aI29
aI36
aI45
aI45
aI47
aI22
a.