(lp0
I59
aI91
aI88
aI88
aI96
aI74
aI63
aI80
aI65
aI86
aI35
aI82
aI80
aI89
aI74
aI88
aI73
aI90
aI93
aI93
aI84
aI96
aI92
aI95
aI96
aI88
aI95
aI84
aI74
aI91
aI80
aI95
aI85
aI80
aI52
aI80
aI78
aI81
aI77
aI20
aI72
aI95
aI90
aI97
aI33
aI67
aI97
aI81
aI35
aI95
aI92
aI74
aI90
aI57
aI90
aI97
aI73
aI80
aI88
aI88
aI57
aI94
aI57
aI64
aI96
aI96
aI96
aI98
aI73
aI27
aI96
aI74
aI84
aI96
aI89
aI96
aI96
aI9
aI89
aI86
aI91
aI70
aI42
aI84
aI90
aI94
aI58
aI57
aI86
aI86
aI49
aI88
aI90
aI96
aI96
aI31
aI90
aI96
aI57
aI92
aI66
aI58
aI85
aI94
aI62
aI46
aI68
aI65
aI89
aI95
aI96
aI87
aI56
aI89
aI91
aI90
aI72
aI56
aI88
aI81
aI52
aI22
aI34
aI65
aI64
aI97
aI41
aI92
aI65
aI85
aI88
aI97
aI81
aI85
aI76
aI89
aI87
aI86
aI78
aI96
aI63
aI87
aI63
aI97
aI33
aI76
aI80
aI95
aI97
aI55
aI74
aI48
aI91
aI82
aI96
aI42
aI95
aI53
aI96
aI95
aI68
aI68
aI83
aI94
aI78
aI94
aI96
aI92
aI58
aI87
aI32
aI92
aI81
aI54
aI91
aI98
aI91
aI57
aI31
aI57
aI50
aI66
aI60
aI90
aI64
aI86
aI88
aI75
aI28
aI89
aI76
aI59
aI65
aI64
aI95
aI88
aI56
aI28
aI75
aI82
aI73
aI95
aI28
aI75
aI71
aI96
aI96
aI47
aI95
aI27
aI59
aI14
aI93
aI64
aI66
aI48
aI63
aI88
aI90
aI84
aI70
aI57
aI89
aI89
aI62
aI50
aI78
aI68
aI68
aI65
aI90
aI52
aI55
aI92
aI19
aI76
aI73
aI53
aI89
aI82
aI89
aI58
aI29
aI97
aI96
aI96
aI84
aI82
aI73
aI57
aI88
aI39
aI84
aI74
aI16
aI16
aI79
aI49
aI97
aI97
aI58
aI58
aI63
aI96
aI91
aI65
aI42
aI49
aI32
aI95
aI87
aI87
aI92
aI51
aI16
aI9
aI97
aI74
aI68
aI96
aI80
aI24
aI83
aI97
aI27
aI65
aI48
aI95
aI90
aI97
aI90
aI72
aI44
aI87
aI65
aI94
aI89
aI62
aI49
aI43
aI60
aI60
aI68
aI35
aI96
aI90
aI18
aI14
aI48
aI9
aI48
aI60
aI80
aI25
aI96
aI39
aI38
aI82
aI76
aI76
aI70
aI70
aI52
aI17
aI93
aI51
aI90
aI68
aI96
aI80
aI86
aI18
aI22
aI85
aI96
aI66
aI18
aI96
aI70
aI74
aI60
aI58
aI59
aI79
aI81
aI45
aI89
aI90
aI97
aI95
aI98
aI96
aI95
aI95
aI95
aI91
aI90
aI79
aI75
aI65
aI84
aI80
aI91
aI91
aI65
aI73
aI89
aI95
aI26
aI96
aI97
aI47
aI62
aI66
aI75
aI82
aI77
aI53
aI55
aI55
aI37
aI56
aI80
aI82
aI70
aI33
aI33
aI81
aI58
aI34
aI24
aI82
aI72
aI70
aI28
aI88
aI57
aI36
aI71
aI90
aI47
aI96
aI58
aI26
aI95
aI96
aI41
aI81
aI63
aI95
aI49
aI37
aI57
aI35
aI96
aI66
aI73
aI58
aI34
aI47
aI89
aI96
aI96
aI92
aI89
aI84
aI76
aI58
aI98
aI88
aI32
aI13
aI32
aI48
aI49
aI56
aI35
aI2
aI85
aI42
aI96
aI73
aI57
aI57
aI49
aI26
aI26
aI50
aI5
aI70
aI84
aI41
aI41
aI41
aI57
aI47
aI47
aI13
aI80
aI96
aI83
aI83
aI42
aI89
aI88
aI47
aI96
aI23
aI23
aI60
aI80
aI43
aI21
aI42
aI94
aI57
aI44
aI89
aI97
aI60
aI63
aI88
aI9
aI63
aI60
aI85
aI96
aI96
aI74
aI31
aI31
aI93
aI73
aI76
aI90
aI79
aI41
aI97
aI67
aI72
aI54
aI85
aI58
aI75
aI43
aI26
aI34
aI81
aI96
aI27
aI80
aI89
aI46
aI81
aI54
aI48
aI96
aI82
aI96
aI26
aI95
aI89
aI96
aI94
aI96
aI53
aI65
aI31
aI98
aI93
aI86
aI63
aI91
aI94
aI79
aI95
aI68
aI94
aI42
aI58
aI48
aI84
aI70
aI26
aI65
aI72
aI40
aI87
aI96
aI96
aI26
aI36
aI24
aI97
aI58
aI56
aI90
aI40
aI48
aI48
aI13
aI50
aI73
aI64
aI86
aI91
aI95
aI32
aI96
aI63
aI89
aI50
aI75
aI78
aI70
aI94
aI96
aI80
aI77
aI56
aI42
aI28
aI95
aI67
aI97
aI84
aI51
aI65
aI96
aI89
aI90
aI74
aI38
aI73
aI73
aI42
aI36
aI68
aI35
aI24
aI89
aI84
aI95
aI69
aI90
aI57
aI79
aI74
aI98
aI97
aI45
aI21
aI90
aI91
aI7
aI7
aI96
aI96
aI73
aI45
aI26
aI92
aI90
aI43
aI75
aI71
aI97
aI92
aI64
aI78
aI38
aI38
aI76
aI61
aI68
aI42
aI42
aI40
aI97
aI65
aI35
aI94
aI65
aI32
a.