(lp0
I332
aI318
aI350
aI350
aI350
aI298
aI314
aI314
aI314
aI314
aI314
aI314
aI314
aI314
aI314
aI314
aI314
aI314
aI314
aI314
aI348
aI348
aI348
aI348
aI348
aI348
aI348
aI348
aI348
aI348
aI348
aI348
aI348
aI348
aI348
aI348
aI348
aI348
aI348
aI348
aI348
aI348
aI311
aI311
aI311
aI311
aI311
aI311
aI311
aI311
aI311
aI339
aI339
aI339
aI339
aI329
aI329
aI329
aI329
aI329
aI329
aI329
aI329
aI329
aI329
aI329
aI329
aI329
aI329
aI329
aI329
aI329
aI329
aI329
aI329
aI329
aI329
aI329
aI367
aI367
aI367
aI367
aI311
aI311
aI311
aI311
aI311
aI311
aI311
aI328
aI318
aI318
aI318
aI352
aI352
aI352
aI352
aI352
aI352
aI352
aI57
aI57
aI57
aI57
aI57
aI57
aI57
aI57
aI57
aI57
aI57
aI328
aI328
aI328
aI328
aI328
aI328
aI2
aI2
aI2
aI2
aI2
aI2
aI2
aI2
aI2
aI2
aI2
aI2
aI2
aI320
aI320
aI320
aI320
aI350
aI350
aI350
aI350
aI326
aI326
aI326
aI326
aI326
aI326
aI326
aI326
aI326
aI326
aI326
aI326
aI329
aI329
aI329
aI329
aI329
aI318
aI326
aI326
aI326
aI326
aI326
aI326
aI328
aI328
aI328
aI328
aI328
aI328
aI328
aI328
aI328
aI328
aI328
aI328
aI330
aI330
aI330
aI330
aI330
aI330
aI336
aI336
aI336
aI336
aI336
aI336
aI336
aI336
aI336
aI336
aI336
aI336
aI336
aI336
aI336
aI336
aI336
aI336
aI328
aI328
aI328
aI328
aI328
aI328
aI348
aI348
aI348
aI356
aI356
aI356
aI356
aI356
aI356
aI356
aI356
aI356
aI356
aI356
aI356
aI356
aI356
aI356
aI328
aI328
aI328
aI350
aI350
aI350
aI350
aI350
aI350
aI350
aI350
aI350
aI350
aI46
aI46
aI46
aI46
aI46
aI46
aI46
aI46
aI46
aI46
aI46
aI46
aI318
aI318
aI318
aI318
aI318
aI318
aI318
aI318
aI318
aI318
aI318
aI318
aI318
aI318
aI318
aI318
aI318
aI318
aI318
aI318
aI318
aI318
aI318
aI24
aI24
aI24
aI329
aI329
aI329
aI329
aI329
aI329
aI329
aI329
aI329
aI329
aI329
aI329
aI329
aI329
aI329
aI329
aI329
aI329
aI329
aI329
aI329
aI329
aI329
aI329
aI329
aI329
aI329
aI329
aI329
aI329
aI329
aI329
aI329
aI329
aI329
aI329
aI318
aI318
aI318
aI318
aI318
aI318
aI318
aI318
aI318
aI318
aI318
aI318
aI318
aI318
aI318
aI323
aI323
aI323
aI323
aI323
aI323
aI323
aI323
aI323
aI335
aI335
aI335
aI335
aI335
aI335
aI335
aI335
aI335
aI335
aI335
aI335
aI321
aI321
aI321
aI321
aI321
aI321
aI326
aI326
aI326
aI326
aI326
aI326
aI326
aI326
aI326
aI326
aI326
aI341
aI324
aI324
aI324
aI350
aI350
aI350
aI350
aI350
aI350
aI350
aI350
aI350
aI350
aI350
aI318
aI319
aI319
aI319
aI319
aI319
aI319
aI319
aI319
aI319
aI319
aI319
aI319
aI319
aI312
aI312
aI312
aI312
aI312
a.