(lp0
I134
aI618
aI650
aI650
aI85
aI83
aI78
aI86
aI113
aI113
aI73
aI73
aI73
aI73
aI73
aI73
aI83
aI90
aI107
aI155
aI155
aI155
aI80
aI79
aI89
aI118
aI118
aI128
aI102
aI98
aI98
aI98
aI79
aI98
aI103
aI103
aI128
aI162
aI162
aI162
aI74
aI65
aI79
aI113
aI113
aI113
aI113
aI169
aI169
aI169
aI62
aI91
aI108
aI121
aI164
aI629
aI629
aI99
aI100
aI102
aI82
aI111
aI129
aI141
aI141
aI141
aI141
aI48
aI66
aI106
aI106
aI106
aI132
aI166
aI166
aI166
aI166
aI120
aI667
aI73
aI96
aI118
aI149
aI149
aI149
aI149
aI61
aI64
aI82
aI91
aI618
aI134
aI122
aI122
aI81
aI81
aI81
aI99
aI133
aI133
aI133
aI96
aI94
aI90
aI115
aI130
aI130
aI130
aI76
aI83
aI80
aI94
aI107
aI104
aI78
aI95
aI95
aI95
aI85
aI115
aI144
aI144
aI144
aI144
aI62
aI76
aI119
aI119
aI119
aI168
aI168
aI168
aI168
aI75
aI99
aI110
aI147
aI172
aI171
aI171
aI171
aI124
aI93
aI75
aI99
aI99
aI99
aI73
aI85
aI120
aI134
aI134
aI134
aI134
aI134
aI618
aI106
aI86
aI80
aI149
aI149
aI149
aI163
aI163
aI163
aI67
aI85
aI99
aI124
aI124
aI124
aI124
aI86
aI89
aI631
aI129
aI129
aI129
aI83
aI109
aI103
aI103
aI150
aI150
aI150
aI61
aI71
aI82
aI82
aI100
aI123
aI146
aI146
aI146
aI146
aI90
aI85
aI80
aI628
aI628
aI71
aI81
aI96
aI128
aI128
aI128
aI128
aI128
aI110
aI110
aI110
aI68
aI86
aI100
aI105
aI154
aI178
aI178
aI178
aI99
aI94
aI85
aI641
aI641
aI72
aI650
aI94
aI123
aI112
aI93
aI116
aI116
aI116
aI116
aI100
aI86
aI72
aI76
aI97
aI129
aI173
aI173
aI173
aI173
aI71
aI103
aI100
aI100
aI129
aI129
aI66
aI81
aI87
aI112
aI114
aI114
aI114
aI154
aI154
aI154
aI154
aI69
aI87
aI98
aI125
aI148
aI148
aI148
aI73
aI82
aI82
aI94
aI119
aI140
aI140
aI140
aI66
aI77
aI101
aI101
aI123
aI163
aI163
aI163
aI66
aI77
aI79
aI86
aI117
aI134
aI137
aI137
aI137
aI137
aI137
aI74
aI79
aI84
aI98
aI117
aI111
aI111
aI78
aI94
aI84
aI91
aI133
aI133
aI75
aI618
aI618
aI99
aI103
aI142
aI142
aI142
aI142
aI69
aI81
aI86
aI87
aI105
aI121
aI112
aI102
aI122
aI122
aI122
aI98
aI100
aI84
aI97
aI135
aI182
aI182
aI182
aI89
aI99
aI89
aI100
aI128
aI141
aI141
aI141
aI69
aI621
aI85
aI100
aI126
aI149
aI149
aI149
aI46
aI94
aI108
aI121
aI167
aI169
aI169
aI169
aI169
aI86
aI77
aI624
aI75
aI98
aI130
aI130
aI130
aI130
aI63
aI69
aI118
aI118
aI143
aI143
aI143
aI78
aI66
aI86
aI95
aI122
aI151
aI134
aI113
aI114
aI114
aI114
aI80
aI105
aI105
aI96
aI76
aI136
aI136
aI136
a.