(lp0
I265
aI250
aI191
aI250
aI251
aI194
aI202
aI380
aI249
aI250
aI217
aI265
aI218
aI218
aI265
aI218
aI251
aI218
aI218
aI248
aI249
aI204
aI248
aI216
aI191
aI265
aI265
aI199
aI191
aI265
aI218
aI218
aI261
aI214
aI248
aI215
aI267
aI216
aI265
aI249
aI265
aI265
aI249
aI248
aI248
aI249
aI261
aI249
aI261
aI248
aI248
aI250
aI192
aI192
aI248
aI249
aI249
aI401
aI248
aI248
aI248
aI248
aI259
aI259
aI259
aI250
aI66
aI250
aI259
aI259
aI249
aI248
aI248
aI249
aI251
aI250
aI250
aI267
aI267
aI218
aI220
aI406
aI267
aI220
aI220
aI220
aI195
aI195
aI195
aI206
aI408
aI248
aI248
aI338
aI248
aI218
aI195
aI249
aI220
aI249
aI220
aI248
aI218
aI350
aI249
aI193
aI195
aI401
aI197
aI249
aI89
aI195
aI248
aI249
aI198
aI217
aI380
aI384
aI259
aI218
aI261
aI248
aI248
aI217
aI217
aI267
aI248
aI216
aI248
aI216
aI109
aI196
aI217
aI249
aI196
aI211
aI211
aI211
aI215
aI215
aI215
aI260
aI214
aI215
aI216
aI248
aI217
aI217
aI385
aI217
aI217
aI360
aI218
aI217
aI217
aI216
aI261
aI217
aI217
aI217
aI217
aI217
aI217
aI217
aI217
aI262
aI217
aI217
aI217
aI216
aI217
aI266
aI248
aI249
aI215
aI248
aI215
aI247
aI213
aI213
aI257
aI197
aI198
aI67
aI240
aI197
aI253
aI259
aI201
aI260
aI401
aI257
aI92
aI209
aI209
aI248
aI248
aI248
aI108
aI265
aI196
aI193
aI220
aI220
aI220
aI218
aI249
aI219
aI361
aI248
aI257
aI74
aI78
aI252
aI248
aI248
aI87
aI257
aI250
aI257
aI258
aI201
aI212
aI376
aI255
aI220
aI202
aI221
aI221
aI260
aI248
aI248
aI190
aI219
aI219
aI247
aI221
aI381
aI202
aI202
aI202
aI220
aI202
aI219
aI217
aI215
aI219
aI214
aI248
aI248
aI249
aI219
aI219
aI218
aI85
aI215
aI214
aI214
aI219
aI189
aI219
aI218
aI250
aI406
aI249
aI249
aI203
aI258
aI249
aI220
aI220
aI220
aI216
aI202
aI220
aI251
aI219
aI220
aI220
aI202
aI251
aI250
aI250
aI218
aI218
aI218
aI218
aI257
aI262
aI204
aI201
aI219
aI254
aI203
aI254
aI264
aI382
aI198
aI219
aI219
aI247
aI217
aI201
aI264
aI202
aI247
aI215
aI249
aI216
aI250
aI249
aI249
aI215
aI194
aI193
aI249
aI218
aI217
aI248
aI217
aI248
aI248
aI220
aI192
aI191
aI251
aI251
aI264
aI249
aI249
aI261
aI216
aI216
aI262
aI262
aI262
aI261
aI194
aI263
aI193
aI215
aI215
aI219
aI265
aI203
aI203
aI202
aI203
aI203
aI407
aI203
aI203
aI190
aI203
aI218
aI202
aI220
aI422
aI202
aI197
aI197
aI248
aI250
aI247
aI247
aI249
aI248
aI248
aI209
aI222
aI257
aI257
aI201
aI201
aI198
aI364
aI248
aI248
aI249
aI258
aI258
aI248
aI213
aI208
aI367
aI247
aI249
aI248
aI248
aI248
aI262
aI193
aI209
aI248
aI248
aI191
aI250
aI66
aI251
aI214
aI170
aI74
aI195
aI217
aI257
aI380
aI195
aI249
aI199
aI321
aI251
aI258
aI200
aI382
aI250
aI250
aI195
aI195
aI249
aI222
aI258
aI250
aI257
aI194
aI194
aI219
aI213
aI220
aI219
aI218
aI218
aI220
aI220
aI220
aI218
aI218
aI213
aI194
aI219
aI213
aI148
aI216
aI55
aI358
aI194
aI191
aI191
aI192
aI195
aI263
aI249
aI192
aI194
aI192
aI249
aI250
aI249
aI249
aI249
aI191
aI203
aI205
aI250
aI85
aI192
aI75
aI261
aI248
aI256
aI261
aI217
aI192
aI192
aI113
aI217
aI84
aI97
aI97
aI126
aI126
aI74
aI69
aI101
aI101
aI367
aI75
aI76
aI76
aI86
aI86
aI86
aI86
aI86
aI89
aI77
aI93
aI93
aI59
aI94
aI107
aI128
aI128
aI74
aI373
aI79
aI85
aI85
aI135
aI339
aI97
aI90
aI113
aI86
aI115
aI104
aI171
aI352
aI74
aI99
aI84
aI84
aI85
aI98
aI105
aI124
aI124
aI117
aI117
aI117
aI111
aI111
aI80
aI105
aI106
aI106
aI376
aI75
aI96
aI75
aI93
aI93
aI93
aI120
aI88
aI88
aI88
aI111
aI72
aI94
aI406
aI406
aI406
aI99
aI99
aI101
aI98
aI88
aI112
aI108
aI167
aI167
aI92
aI92
aI78
aI110
aI72
aI112
aI112
aI146
aI151
aI151
aI105
aI78
aI102
aI122
aI89
aI101
aI85
aI100
aI111
aI86
aI86
aI86
aI106
aI106
aI83
aI87
aI98
aI370
aI112
aI133
aI133
aI100
aI100
aI89
aI88
aI88
aI72
aI106
aI135
aI139
aI139
aI91
aI91
aI81
aI81
aI68
aI105
aI114
aI153
aI153
aI153
aI108
aI123
aI123
aI119
aI101
aI137
aI137
aI133
aI91
aI375
aI100
aI100
aI94
aI115
aI115
aI115
aI120
aI95
aI88
aI88
aI68
aI80
aI86
aI113
aI157
aI157
aI113
aI113
aI121
aI121
aI108
aI92
a.