(lp0
I97
aI97
aI97
aI79
aI65
aI66
aI88
aI88
aI88
aI97
aI97
aI39
aI57
aI81
aI81
aI81
aI97
aI74
aI66
aI71
aI71
aI71
aI71
aI71
aI71
aI48
aI42
aI60
aI89
aI89
aI89
aI89
aI74
aI63
aI67
aI86
aI86
aI86
aI86
aI86
aI52
aI40
aI59
aI85
aI85
aI85
aI92
aI70
aI67
aI73
aI96
aI96
aI96
aI88
aI88
aI48
aI40
aI64
aI88
aI88
aI88
aI88
aI66
aI65
aI77
aI77
aI77
aI77
aI77
aI77
aI41
aI45
aI72
aI91
aI91
aI91
aI81
aI65
aI61
aI84
aI84
aI84
aI84
aI84
aI84
aI41
aI49
aI79
aI96
aI96
aI96
aI74
aI61
aI69
aI88
aI88
aI88
aI88
aI88
aI88
aI42
aI59
aI85
aI85
aI85
aI96
aI74
aI67
aI70
aI97
aI97
aI97
aI95
aI95
aI95
aI38
aI56
aI84
aI96
aI96
aI96
aI96
aI63
aI70
aI90
aI90
aI90
aI90
aI90
aI90
aI40
aI59
aI85
aI85
aI85
aI85
aI74
aI65
aI68
aI68
aI68
aI68
aI96
aI96
aI47
aI43
aI63
aI88
aI88
aI88
aI88
aI72
aI65
aI70
aI89
aI89
aI89
aI89
aI89
aI89
aI43
aI60
aI86
aI86
aI86
aI86
aI74
aI66
aI70
aI89
aI89
aI89
aI89
aI89
aI89
aI31
aI58
aI84
aI84
aI84
aI84
aI73
aI73
aI73
aI85
aI85
aI85
aI85
aI85
aI52
aI41
aI59
aI84
aI96
aI79
aI79
aI71
aI65
aI73
aI91
aI91
aI91
aI91
aI91
aI47
aI54
aI62
aI86
aI86
aI86
aI86
aI86
aI74
aI68
aI87
aI87
aI87
aI87
aI87
aI87
aI40
aI52
aI83
aI96
aI96
aI81
aI90
aI63
aI64
aI77
aI77
aI77
aI77
aI77
aI77
aI40
aI48
aI76
aI92
aI92
aI92
aI90
aI70
aI70
aI82
aI82
aI82
aI82
aI82
aI82
aI43
aI41
aI65
aI89
aI89
aI89
aI89
aI67
aI63
aI77
aI77
aI77
aI77
aI77
aI77
aI40
aI46
aI74
aI88
aI88
aI88
aI87
aI64
aI69
aI83
aI83
aI83
aI96
aI96
aI96
aI33
aI53
aI84
aI97
aI97
aI97
aI79
aI61
aI71
aI85
aI85
aI85
aI85
aI85
aI48
aI41
aI66
aI88
aI88
aI88
aI90
aI73
aI67
aI75
aI97
aI97
aI97
aI97
aI97
aI42
aI44
aI66
aI89
aI89
aI89
aI90
aI66
aI62
aI77
aI77
aI77
aI77
aI77
aI77
aI37
aI45
aI74
aI89
aI89
aI89
aI85
aI69
aI69
aI86
aI86
aI86
aI86
aI86
aI86
aI42
aI58
aI75
aI92
aI92
aI92
aI92
aI67
aI65
aI91
aI91
aI91
aI91
aI91
aI91
aI50
aI50
aI81
aI93
aI93
aI93
aI88
aI64
aI66
aI81
aI81
aI81
aI81
aI81
aI81
aI37
aI47
aI86
aI91
aI91
aI91
aI82
aI68
aI67
aI85
aI85
aI85
aI85
aI85
aI85
aI41
aI51
aI78
aI97
aI97
aI97
aI80
aI67
aI68
aI68
aI68
aI68
aI97
aI97
aI97
aI49
aI47
aI77
aI90
aI90
aI90
aI90
aI67
aI68
aI81
aI81
aI81
aI81
aI81
aI81
aI42
aI45
aI86
aI81
aI81
aI81
aI81
aI67
aI66
aI80
aI80
aI80
aI80
aI80
aI80
aI42
aI45
aI71
aI89
aI89
aI89
aI87
aI67
aI65
aI81
aI81
aI81
aI81
aI81
aI81
aI42
aI45
aI76
aI92
aI92
aI92
aI92
aI66
aI68
aI90
aI90
aI90
aI90
aI90
aI90
aI38
aI33
aI77
aI92
aI92
aI92
aI86
aI69
aI67
aI89
aI89
aI89
aI89
aI89
aI89
a.