(lp0
I28
aI15
aI27
aI41
aI41
aI41
aI15
aI37
aI64
aI95
aI95
aI95
aI34
aI37
aI56
aI56
aI38
aI35
aI54
aI53
aI53
aI38
aI31
aI44
aI43
aI39
aI82
aI82
aI53
aI41
aI32
aI40
aI59
aI81
aI81
aI44
aI40
aI66
aI66
aI66
aI17
aI16
aI33
aI64
aI64
aI64
aI14
aI15
aI40
aI77
aI77
aI77
aI22
aI43
aI54
aI54
aI54
aI32
aI31
aI38
aI50
aI50
aI51
aI42
aI28
aI31
aI31
aI31
aI49
aI82
aI89
aI60
aI60
aI60
aI36
aI47
aI47
aI47
aI47
aI31
aI45
aI49
aI49
aI49
aI33
aI33
aI45
aI53
aI53
aI39
aI59
aI59
aI59
aI50
aI64
aI72
aI84
aI57
aI41
aI33
aI55
aI63
aI79
aI84
aI84
aI84
aI38
aI42
aI24
aI18
aI22
aI40
aI65
aI88
aI97
aI97
aI97
aI97
aI30
aI42
aI39
aI54
aI65
aI68
aI74
aI70
aI37
aI24
aI39
aI39
aI22
aI45
aI78
aI97
aI97
aI97
aI97
aI26
aI34
aI45
aI45
aI48
aI39
aI41
aI55
aI55
aI55
aI26
aI32
aI48
aI41
aI42
aI42
aI42
aI46
aI50
aI66
aI75
aI75
aI75
aI43
aI47
aI47
aI47
aI33
aI38
aI33
aI33
aI23
aI49
aI85
aI85
aI85
aI85
aI23
aI17
aI37
aI37
aI47
aI73
aI73
aI73
aI73
aI31
aI21
aI38
aI38
aI51
aI82
aI67
aI67
aI26
aI21
aI21
aI21
aI48
aI55
aI73
aI41
aI34
aI45
aI48
aI48
aI55
aI55
aI55
aI55
aI30
aI32
aI41
aI41
aI49
aI49
aI62
aI62
aI62
aI36
aI53
aI53
aI53
aI26
aI26
aI38
aI44
aI22
aI32
aI56
aI78
aI78
aI78
aI78
aI38
aI37
aI54
aI41
aI41
aI41
aI46
aI39
aI35
aI35
aI35
aI20
aI53
aI88
aI88
aI88
aI59
aI42
aI20
aI20
aI38
aI51
aI70
aI70
aI70
aI41
aI19
aI40
aI73
aI69
aI53
aI53
aI53
aI40
aI40
aI41
aI41
aI17
aI63
aI63
aI63
aI63
aI63
aI21
aI43
aI43
aI43
aI62
aI62
aI62
aI62
aI62
aI45
aI45
aI45
aI45
aI35
aI41
aI49
aI49
aI49
aI39
aI24
aI23
aI23
aI23
aI18
aI53
aI93
aI93
aI93
aI93
aI33
aI33
aI52
aI52
aI56
aI56
aI40
aI65
aI65
aI65
aI65
aI65
aI37
aI51
aI33
aI42
aI73
aI73
aI51
aI27
aI18
aI42
aI63
aI63
aI63
aI63
aI35
aI41
aI41
aI41
aI41
aI41
aI65
aI76
aI44
aI30
aI34
aI34
aI11
aI20
aI28
aI29
aI45
aI42
aI42
aI53
aI66
aI25
aI25
aI24
aI47
aI47
aI67
aI67
aI67
aI14
aI35
aI61
aI66
aI71
aI71
aI59
aI42
aI33
aI46
aI46
aI38
aI42
aI70
aI70
a.