(lp0
I66
aI71
aI71
aI53
aI68
aI88
aI88
aI88
aI44
aI64
aI75
aI75
aI75
aI95
aI97
aI97
aI97
aI51
aI69
aI77
aI77
aI51
aI69
aI91
aI91
aI91
aI55
aI68
aI72
aI80
aI80
aI80
aI86
aI96
aI96
aI96
aI48
aI67
aI73
aI79
aI64
aI68
aI91
aI91
aI91
aI60
aI59
aI64
aI78
aI78
aI53
aI53
aI94
aI94
aI94
aI44
aI60
aI69
aI78
aI78
aI66
aI88
aI96
aI96
aI96
aI55
aI68
aI74
aI74
aI54
aI67
aI91
aI91
aI91
aI52
aI61
aI68
aI74
aI74
aI74
aI78
aI97
aI97
aI97
aI51
aI67
aI72
aI76
aI55
aI55
aI97
aI97
aI97
aI45
aI63
aI70
aI73
aI73
aI73
aI83
aI97
aI97
aI57
aI57
aI68
aI77
aI83
aI57
aI81
aI93
aI93
aI93
aI45
aI60
aI79
aI72
aI72
aI57
aI91
aI97
aI97
aI56
aI60
aI70
aI79
aI79
aI57
aI79
aI91
aI91
aI91
aI57
aI54
aI63
aI72
aI72
aI48
aI66
aI84
aI84
aI84
aI52
aI68
aI77
aI77
aI53
aI53
aI90
aI90
aI90
aI57
aI63
aI70
aI78
aI78
aI72
aI83
aI94
aI94
aI22
aI48
aI63
aI73
aI73
aI62
aI62
aI91
aI91
aI91
aI91
aI54
aI63
aI71
aI71
aI51
aI68
aI91
aI91
aI91
aI49
aI63
aI69
aI78
aI78
aI61
aI86
aI96
aI96
aI96
aI51
aI65
aI71
aI71
aI56
aI93
aI94
aI94
aI94
aI57
aI61
aI67
aI79
aI79
aI61
aI88
aI96
aI96
aI57
aI53
aI65
aI78
aI78
aI56
aI88
aI97
aI97
aI97
aI44
aI61
aI70
aI81
aI81
aI61
aI61
aI61
aI61
aI55
aI54
aI63
aI73
aI73
aI60
aI60
aI60
aI60
aI60
aI43
aI62
aI67
aI77
aI63
aI60
aI95
aI97
aI97
aI53
aI58
aI66
aI79
aI79
aI79
aI78
aI94
aI94
aI94
aI47
aI64
aI70
aI81
aI56
aI56
aI93
aI93
aI93
aI56
aI58
aI66
aI72
aI72
aI72
aI90
aI97
aI97
aI97
aI53
aI63
aI73
aI73
aI56
aI90
aI96
aI96
aI96
aI58
aI59
aI68
aI71
aI72
aI72
aI89
aI96
aI96
aI96
aI47
aI63
aI57
aI78
aI55
aI75
aI91
aI91
aI91
aI57
aI57
aI64
aI75
aI75
aI52
aI84
aI96
aI96
aI96
aI50
aI64
aI75
aI70
aI53
aI56
aI88
aI88
aI88
aI40
aI57
aI67
aI76
aI76
aI59
aI81
aI96
aI96
aI96
aI53
aI67
aI72
aI76
aI53
aI65
aI90
aI90
aI90
aI42
aI60
aI71
aI89
aI89
aI59
aI89
aI93
aI93
aI93
aI53
aI68
aI73
aI73
aI52
aI74
aI89
aI89
aI89
aI54
aI64
aI72
aI79
aI79
aI79
aI81
aI97
aI97
aI97
aI56
aI64
aI67
aI74
aI53
aI73
aI93
aI93
aI93
aI45
aI61
aI69
aI79
aI79
aI79
aI83
aI97
aI97
aI97
aI48
aI62
aI71
aI87
aI87
aI87
aI94
aI94
aI94
aI94
aI54
aI63
aI70
aI70
aI51
aI69
aI92
aI92
aI92
aI44
aI61
aI72
aI76
aI76
aI76
aI88
aI95
aI95
aI95
aI50
aI65
aI71
aI77
aI50
aI63
aI82
aI92
aI92
aI55
aI63
aI73
aI83
aI83
aI83
aI89
aI96
aI96
aI96
aI45
aI63
aI69
aI65
aI53
aI64
aI83
aI96
aI96
aI52
aI60
aI71
aI84
aI84
aI57
aI86
aI96
aI96
aI96
aI47
aI66
aI70
aI71
aI50
aI81
aI81
aI81
aI81
aI44
aI61
aI74
aI85
aI85
aI58
aI86
aI95
aI95
aI25
aI45
aI63
aI68
aI66
aI66
aI66
aI91
aI91
aI91
aI66
aI60
aI68
aI76
aI76
aI52
aI73
aI92
aI92
aI23
a.